; Function Attrs: nounwind uwtable
define hidden void @jAttributeToCKAttribute(ptr dead_on_unwind noalias writable sret(%struct.CK_ATTRIBUTE) align 8 %0, ptr noundef %1, ptr noundef %2) local_unnamed_addr #0 {
  tail call void @llvm.memset.p0.i64(ptr noundef nonnull align 8 dereferenceable(24) %0, i8 0, i64 24, i1 false)
  %4 = load ptr, ptr %1, align 8
  %5 = getelementptr inbounds i8, ptr %4, i64 248
  %6 = load ptr, ptr %5, align 8
  %7 = tail call ptr %6(ptr noundef nonnull %1, ptr noundef %2) #8
  %8 = icmp eq ptr %7, null
  br i1 %8, label %33, label %9

9:                                                ; preds = %3
  %10 = load ptr, ptr %1, align 8
  %11 = getelementptr inbounds i8, ptr %10, i64 752
  %12 = load ptr, ptr %11, align 8
  %13 = tail call ptr %12(ptr noundef nonnull %1, ptr noundef nonnull %7, ptr noundef nonnull @.str.16, ptr noundef nonnull @.str.17) #8
  %14 = icmp eq ptr %13, null
  br i1 %14, label %33, label %15

15:                                               ; preds = %9
  %16 = load ptr, ptr %1, align 8
  %17 = getelementptr inbounds i8, ptr %16, i64 808
  %18 = load ptr, ptr %17, align 8
  %19 = tail call i64 %18(ptr noundef nonnull %1, ptr noundef %2, ptr noundef nonnull %13) #8
  %20 = load ptr, ptr %1, align 8
  %21 = getelementptr inbounds i8, ptr %20, i64 752
  %22 = load ptr, ptr %21, align 8
  %23 = tail call ptr %22(ptr noundef nonnull %1, ptr noundef nonnull %7, ptr noundef nonnull @.str.18, ptr noundef nonnull @.str.19) #8
  %24 = icmp eq ptr %23, null
  br i1 %24, label %33, label %25

25:                                               ; preds = %15
  %26 = load ptr, ptr %1, align 8
  %27 = getelementptr inbounds i8, ptr %26, i64 760
  %28 = load ptr, ptr %27, align 8
  %29 = tail call ptr %28(ptr noundef nonnull %1, ptr noundef %2, ptr noundef nonnull %23) #8
  store i64 %19, ptr %0, align 8
  %30 = getelementptr inbounds i8, ptr %0, i64 16
  %31 = tail call ptr @jObjectToPrimitiveCKObjectPtr(ptr noundef nonnull %1, ptr noundef %29, ptr noundef nonnull %30) #8
  %32 = getelementptr inbounds i8, ptr %0, i64 8
  store ptr %31, ptr %32, align 8
  br label %33

33:                                               ; preds = %15, %9, %3, %25
  ret void
}